; Function Attrs: mustprogress uwtable
define hidden void @_ZN3p2t5Sweep24FillLeftConcaveEdgeEventERNS_12SweepContextEPNS_4EdgeERNS_4NodeE(ptr noundef nonnull align 8 dereferenceable(24) %0, ptr noundef nonnull align 8 dereferenceable(200) %1, ptr noundef readonly captures(none) %2, ptr noundef nonnull readonly align 8 captures(none) dereferenceable(40) %3) local_unnamed_addr #2 align 2 {
  %5 = getelementptr inbounds nuw i8, ptr %2, i64 8
  %6 = getelementptr inbounds nuw i8, ptr %3, i64 24
  %.pre = load ptr, ptr %6, align 8
  br label %tailrecurse

tailrecurse:                                      ; preds = %30, %4
  %7 = phi ptr [ %8, %30 ], [ %.pre, %4 ]
  tail call void @_ZN3p2t5Sweep4FillERNS_12SweepContextERNS_4NodeE(ptr noundef nonnull align 8 dereferenceable(24) %0, ptr noundef nonnull align 8 dereferenceable(200) %1, ptr noundef nonnull align 8 dereferenceable(40) %7)
  %8 = load ptr, ptr %6, align 8
  %9 = load ptr, ptr %8, align 8
  %10 = load ptr, ptr %2, align 8
  %.not = icmp eq ptr %9, %10
  br i1 %.not, label %49, label %11

11:                                               ; preds = %tailrecurse
  %12 = load ptr, ptr %5, align 8
  %13 = load double, ptr %12, align 8
  %14 = load double, ptr %10, align 8
  %15 = fsub double %13, %14
  %16 = getelementptr inbounds nuw i8, ptr %9, i64 8
  %17 = load double, ptr %16, align 8
  %18 = getelementptr inbounds nuw i8, ptr %10, i64 8
  %19 = load double, ptr %18, align 8
  %20 = fsub double %17, %19
  %21 = fmul double %15, %20
  %22 = getelementptr inbounds nuw i8, ptr %12, i64 8
  %23 = load double, ptr %22, align 8
  %24 = fsub double %23, %19
  %25 = load double, ptr %9, align 8
  %26 = fsub double %25, %14
  %27 = fmul double %24, %26
  %28 = fsub double %21, %27
  %29 = fcmp ult double %28, 0.000000e+00
  br i1 %29, label %30, label %49

30:                                               ; preds = %11
  %31 = load ptr, ptr %3, align 8
  %32 = getelementptr inbounds nuw i8, ptr %8, i64 24
  %33 = load ptr, ptr %32, align 8
  %34 = load ptr, ptr %33, align 8
  %35 = load double, ptr %31, align 8
  %36 = load double, ptr %34, align 8
  %37 = fsub double %35, %36
  %38 = getelementptr inbounds nuw i8, ptr %34, i64 8
  %39 = load double, ptr %38, align 8
  %40 = fsub double %17, %39
  %41 = fmul double %37, %40
  %42 = getelementptr inbounds nuw i8, ptr %31, i64 8
  %43 = load double, ptr %42, align 8
  %44 = fsub double %43, %39
  %45 = fsub double %25, %36
  %46 = fmul double %45, %44
  %47 = fsub double %41, %46
  %48 = fcmp ult double %47, 0.000000e+00
  br i1 %48, label %tailrecurse, label %49

49:                                               ; preds = %11, %30, %tailrecurse
  ret void
}